; ModuleID = '44/1081.c'
source_filename = "44/1081.c"
target datalayout = "e-m:e-p270:32:32-p271:32:32-p272:64:64-i64:64-f80:128-n8:16:32:64-S128"
target triple = "x86_64-pc-linux-gnu"

@.str = private unnamed_addr constant [3 x i8] c"%d\00", align 1
@.str.1 = private unnamed_addr constant [4 x i8] c"%d\0A\00", align 1
@.str.2 = private unnamed_addr constant [5 x i8] c"-%d\0A\00", align 1

; Function Attrs: noinline nounwind uwtable
define dso_local i32 @reverse(i32 %0) #0 {
  %2 = alloca i32, align 4
  %3 = alloca i32, align 4
  %4 = alloca i32, align 4
  %5 = alloca i32, align 4
  store i32 %0, i32* %2, align 4
  store i32 0, i32* %4, align 4
  %6 = load i32, i32* %2, align 4
  %7 = icmp slt i32 %6, 0
  br i1 %7, label %8, label %11

8:                                                ; preds = %1
  %9 = load i32, i32* %2, align 4
  %10 = sub nsw i32 0, %9
  store i32 %10, i32* %2, align 4
  br label %11

11:                                               ; preds = %8, %1
  store i32 0, i32* %3, align 4
  br label %12

12:                                               ; preds = %26, %11
  %13 = load i32, i32* %2, align 4
  %14 = icmp sge i32 %13, 1
  br i1 %14, label %15, label %29

15:                                               ; preds = %12
  %16 = load i32, i32* %2, align 4
  %17 = srem i32 %16, 10
  store i32 %17, i32* %5, align 4
  %18 = load i32, i32* %4, align 4
  %19 = mul nsw i32 %18, 10
  %20 = load i32, i32* %5, align 4
  %21 = add nsw i32 %19, %20
  store i32 %21, i32* %4, align 4
  %22 = load i32, i32* %2, align 4
  %23 = load i32, i32* %5, align 4
  %24 = sub nsw i32 %22, %23
  %25 = sdiv i32 %24, 10
  store i32 %25, i32* %2, align 4
  br label %26

26:                                               ; preds = %15
  %27 = load i32, i32* %3, align 4
  %28 = add nsw i32 %27, 1
  store i32 %28, i32* %3, align 4
  br label %12

29:                                               ; preds = %12
  %30 = load i32, i32* %4, align 4
  ret i32 %30
}

; Function Attrs: noinline nounwind uwtable
define dso_local void @main() #0 {
  %1 = alloca i32, align 4
  %2 = alloca [6 x i32], align 16
  %3 = alloca [6 x i32], align 16
  store i32 0, i32* %1, align 4
  br label %4

4:                                                ; preds = %20, %0
  %5 = load i32, i32* %1, align 4
  %6 = icmp slt i32 %5, 6
  br i1 %6, label %7, label %23

7:                                                ; preds = %4
  %8 = load i32, i32* %1, align 4
  %9 = sext i32 %8 to i64
  %10 = getelementptr inbounds [6 x i32], [6 x i32]* %2, i64 0, i64 %9
  %11 = call i32 (i8*, ...) @__isoc99_scanf(i8* getelementptr inbounds ([3 x i8], [3 x i8]* @.str, i64 0, i64 0), i32* %10)
  %12 = load i32, i32* %1, align 4
  %13 = sext i32 %12 to i64
  %14 = getelementptr inbounds [6 x i32], [6 x i32]* %2, i64 0, i64 %13
  %15 = load i32, i32* %14, align 4
  %16 = call i32 @reverse(i32 %15)
  %17 = load i32, i32* %1, align 4
  %18 = sext i32 %17 to i64
  %19 = getelementptr inbounds [6 x i32], [6 x i32]* %3, i64 0, i64 %18
  store i32 %16, i32* %19, align 4
  br label %20

20:                                               ; preds = %7
  %21 = load i32, i32* %1, align 4
  %22 = add nsw i32 %21, 1
  store i32 %22, i32* %1, align 4
  br label %4

23:                                               ; preds = %4
  store i32 0, i32* %1, align 4
  br label %24

24:                                               ; preds = %46, %23
  %25 = load i32, i32* %1, align 4
  %26 = icmp slt i32 %25, 6
  br i1 %26, label %27, label %49

27:                                               ; preds = %24
  %28 = load i32, i32* %1, align 4
  %29 = sext i32 %28 to i64
  %30 = getelementptr inbounds [6 x i32], [6 x i32]* %2, i64 0, i64 %29
  %31 = load i32, i32* %30, align 4
  %32 = icmp sge i32 %31, 0
  br i1 %32, label %33, label %39

33:                                               ; preds = %27
  %34 = load i32, i32* %1, align 4
  %35 = sext i32 %34 to i64
  %36 = getelementptr inbounds [6 x i32], [6 x i32]* %3, i64 0, i64 %35
  %37 = load i32, i32* %36, align 4
  %38 = call i32 (i8*, ...) @printf(i8* getelementptr inbounds ([4 x i8], [4 x i8]* @.str.1, i64 0, i64 0), i32 %37)
  br label %45

39:                                               ; preds = %27
  %40 = load i32, i32* %1, align 4
  %41 = sext i32 %40 to i64
  %42 = getelementptr inbounds [6 x i32], [6 x i32]* %3, i64 0, i64 %41
  %43 = load i32, i32* %42, align 4
  %44 = call i32 (i8*, ...) @printf(i8* getelementptr inbounds ([5 x i8], [5 x i8]* @.str.2, i64 0, i64 0), i32 %43)
  br label %45

45:                                               ; preds = %39, %33
  br label %46

46:                                               ; preds = %45
  %47 = load i32, i32* %1, align 4
  %48 = add nsw i32 %47, 1
  store i32 %48, i32* %1, align 4
  br label %24

49:                                               ; preds = %24
  ret void
}

declare dso_local i32 @__isoc99_scanf(i8*, ...) #1

declare dso_local i32 @printf(i8*, ...) #1


!llvm.module.flags = !{!0}
!llvm.ident = !{!1}

!0 = !{i32 1, !"wchar_size", i32 4}
!1 = !{!"clang version 10.0.0-4ubuntu1 "}
